target datalayout = "e-m:e-p270:32:32-p271:32:32-p272:64:64-i64:64-i128:128-f80:128-n8:16:32:64-S128"
target triple = "x86_64-pc-linux-gnu"

%"class.llvm::SmallVectorBase" = type { ptr, i32, i32 }
%"struct.llvm::MBBSectionID" = type { i32, i32 }
%"class.std::optional" = type { %"struct.std::_Optional_base" }
%"struct.std::_Optional_base" = type { %"struct.std::_Optional_payload" }
%"struct.std::_Optional_payload" = type { %"struct.std::_Optional_payload_base.base", [7 x i8] }
%"struct.std::_Optional_payload_base.base" = type <{ %"union.std::_Optional_payload_base<unsigned long>::_Storage", i8 }>
%"union.std::_Optional_payload_base<unsigned long>::_Storage" = type { i64 }
%"class.llvm::MachineBasicBlock" = type { %"class.llvm::ilist_node_with_parent", ptr, i32, i32, ptr, %"class.llvm::iplist", %"class.llvm::SmallVector.4", %"class.llvm::SmallVector.9", %"class.std::vector", %"class.std::optional", %"class.std::vector.11", %"struct.llvm::Align", i32, i8, i8, ptr, i8, i8, i8, i8, i8, [3 x i8], %"class.std::optional.16", %"struct.llvm::MBBSectionID", i8, i8, i8, ptr, ptr, ptr }
%"class.llvm::ilist_node_with_parent" = type { %"class.llvm::ilist_node" }
%"class.llvm::ilist_node" = type { %"class.llvm::ilist_node_impl" }
%"class.llvm::ilist_node_impl" = type { %"class.llvm::ilist_node_base" }
%"class.llvm::ilist_node_base" = type { %"class.llvm::ilist_detail::node_base_prevnext" }
%"class.llvm::ilist_detail::node_base_prevnext" = type { ptr, ptr }
%"class.llvm::iplist" = type { %"class.llvm::iplist_impl" }
%"class.llvm::iplist_impl" = type { %"struct.llvm::ilist_traits", %"class.llvm::simple_ilist" }
%"struct.llvm::ilist_traits" = type { ptr }
%"class.llvm::simple_ilist" = type { %"class.llvm::ilist_sentinel" }
%"class.llvm::ilist_sentinel" = type { %"class.llvm::ilist_node_impl.0" }
%"class.llvm::ilist_node_impl.0" = type { %"class.llvm::ilist_node_base.1" }
%"class.llvm::ilist_node_base.1" = type { %"class.llvm::ilist_detail::node_base_prevnext.2" }
%"class.llvm::ilist_detail::node_base_prevnext.2" = type { %"class.llvm::PointerIntPair", ptr }
%"class.llvm::PointerIntPair" = type { %"struct.llvm::detail::PunnedPointer" }
%"struct.llvm::detail::PunnedPointer" = type { [8 x i8] }
%"class.llvm::SmallVector.4" = type { %"class.llvm::SmallVectorImpl.5", %"struct.llvm::SmallVectorStorage.8" }
%"class.llvm::SmallVectorImpl.5" = type { %"class.llvm::SmallVectorTemplateBase.6" }
%"class.llvm::SmallVectorTemplateBase.6" = type { %"class.llvm::SmallVectorTemplateCommon.7" }
%"class.llvm::SmallVectorTemplateCommon.7" = type { %"class.llvm::SmallVectorBase" }
%"struct.llvm::SmallVectorStorage.8" = type { [32 x i8] }
%"class.llvm::SmallVector.9" = type { %"class.llvm::SmallVectorImpl.5", %"struct.llvm::SmallVectorStorage.10" }
%"struct.llvm::SmallVectorStorage.10" = type { [16 x i8] }
%"class.std::vector" = type { %"struct.std::_Vector_base" }
%"struct.std::_Vector_base" = type { %"struct.std::_Vector_base<llvm::BranchProbability, std::allocator<llvm::BranchProbability>>::_Vector_impl" }
%"struct.std::_Vector_base<llvm::BranchProbability, std::allocator<llvm::BranchProbability>>::_Vector_impl" = type { %"struct.std::_Vector_base<llvm::BranchProbability, std::allocator<llvm::BranchProbability>>::_Vector_impl_data" }
%"struct.std::_Vector_base<llvm::BranchProbability, std::allocator<llvm::BranchProbability>>::_Vector_impl_data" = type { ptr, ptr, ptr }
%"class.std::vector.11" = type { %"struct.std::_Vector_base.12" }
%"struct.std::_Vector_base.12" = type { %"struct.std::_Vector_base<llvm::MachineBasicBlock::RegisterMaskPair, std::allocator<llvm::MachineBasicBlock::RegisterMaskPair>>::_Vector_impl" }
%"struct.std::_Vector_base<llvm::MachineBasicBlock::RegisterMaskPair, std::allocator<llvm::MachineBasicBlock::RegisterMaskPair>>::_Vector_impl" = type { %"struct.std::_Vector_base<llvm::MachineBasicBlock::RegisterMaskPair, std::allocator<llvm::MachineBasicBlock::RegisterMaskPair>>::_Vector_impl_data" }
%"struct.std::_Vector_base<llvm::MachineBasicBlock::RegisterMaskPair, std::allocator<llvm::MachineBasicBlock::RegisterMaskPair>>::_Vector_impl_data" = type { ptr, ptr, ptr }
%"struct.llvm::Align" = type { i8 }
%"class.std::optional.16" = type { %"struct.std::_Optional_base.17" }
%"struct.std::_Optional_base.17" = type { %"struct.std::_Optional_payload.19" }
%"struct.std::_Optional_payload.19" = type { %"struct.std::_Optional_payload_base.base.21", [3 x i8] }
%"struct.std::_Optional_payload_base.base.21" = type <{ %"union.std::_Optional_payload_base<llvm::UniqueBBID>::_Storage", i8 }>
%"union.std::_Optional_payload_base<llvm::UniqueBBID>::_Storage" = type { %"struct.llvm::UniqueBBID" }
%"struct.llvm::UniqueBBID" = type { i32, i32 }
%"class.llvm::MachineFunction" = type <{ ptr, ptr, ptr, ptr, ptr, ptr, ptr, ptr, ptr, ptr, ptr, ptr, %"class.std::vector.24", i32, [4 x i8], %"class.llvm::BumpPtrAllocatorImpl", %"class.llvm::Recycler", %"class.llvm::ArrayRecycler", %"class.llvm::Recycler.45", %"class.llvm::iplist.46", i32, %"struct.llvm::Align", i8, i8, i8, %"class.llvm::MachineFunctionProperties", %"class.std::unique_ptr", %"class.std::vector.55", %"class.std::vector.60", %"class.std::vector.60", %"class.std::vector.65", %"class.llvm::DenseMap", %"class.llvm::DenseMap.70", %"class.llvm::DenseMap.73", %"class.std::vector.76", i8, i8, i8, i8, i8, i8, [2 x i8], i32, i32, %"class.std::vector.81", %"class.std::vector.86", %"class.std::vector.86", i32, [4 x i8], ptr, ptr, %"class.llvm::DenseMap.91", %"class.llvm::SmallVector.94", i32, [4 x i8], %"class.llvm::SmallVector.99", %"class.llvm::DenseMap.104", i8, [7 x i8] }>
%"class.std::vector.24" = type { %"struct.std::_Vector_base.25" }
%"struct.std::_Vector_base.25" = type { %"struct.std::_Vector_base<llvm::MachineBasicBlock *, std::allocator<llvm::MachineBasicBlock *>>::_Vector_impl" }
%"struct.std::_Vector_base<llvm::MachineBasicBlock *, std::allocator<llvm::MachineBasicBlock *>>::_Vector_impl" = type { %"struct.std::_Vector_base<llvm::MachineBasicBlock *, std::allocator<llvm::MachineBasicBlock *>>::_Vector_impl_data" }
%"struct.std::_Vector_base<llvm::MachineBasicBlock *, std::allocator<llvm::MachineBasicBlock *>>::_Vector_impl_data" = type { ptr, ptr, ptr }
%"class.llvm::BumpPtrAllocatorImpl" = type { ptr, ptr, %"class.llvm::SmallVector.30", %"class.llvm::SmallVector.35", i64, i64 }
%"class.llvm::SmallVector.30" = type { %"class.llvm::SmallVectorImpl.31", %"struct.llvm::SmallVectorStorage.34" }
%"class.llvm::SmallVectorImpl.31" = type { %"class.llvm::SmallVectorTemplateBase.32" }
%"class.llvm::SmallVectorTemplateBase.32" = type { %"class.llvm::SmallVectorTemplateCommon.33" }
%"class.llvm::SmallVectorTemplateCommon.33" = type { %"class.llvm::SmallVectorBase" }
%"struct.llvm::SmallVectorStorage.34" = type { [32 x i8] }
%"class.llvm::SmallVector.35" = type { %"class.llvm::SmallVectorImpl.36" }
%"class.llvm::SmallVectorImpl.36" = type { %"class.llvm::SmallVectorTemplateBase.37" }
%"class.llvm::SmallVectorTemplateBase.37" = type { %"class.llvm::SmallVectorTemplateCommon.38" }
%"class.llvm::SmallVectorTemplateCommon.38" = type { %"class.llvm::SmallVectorBase" }
%"class.llvm::Recycler" = type { ptr }
%"class.llvm::ArrayRecycler" = type { %"class.llvm::SmallVector.40" }
%"class.llvm::SmallVector.40" = type { %"class.llvm::SmallVectorImpl.41", %"struct.llvm::SmallVectorStorage.44" }
%"class.llvm::SmallVectorImpl.41" = type { %"class.llvm::SmallVectorTemplateBase.42" }
%"class.llvm::SmallVectorTemplateBase.42" = type { %"class.llvm::SmallVectorTemplateCommon.43" }
%"class.llvm::SmallVectorTemplateCommon.43" = type { %"class.llvm::SmallVectorBase" }
%"struct.llvm::SmallVectorStorage.44" = type { [64 x i8] }
%"class.llvm::Recycler.45" = type { ptr }
%"class.llvm::iplist.46" = type { %"class.llvm::iplist_impl.47" }
%"class.llvm::iplist_impl.47" = type { %"class.llvm::simple_ilist.49" }
%"class.llvm::simple_ilist.49" = type { %"class.llvm::ilist_sentinel.52" }
%"class.llvm::ilist_sentinel.52" = type { %"class.llvm::ilist_node_impl" }
%"class.llvm::MachineFunctionProperties" = type { %"class.std::bitset" }
%"class.std::bitset" = type { %"struct.std::_Base_bitset" }
%"struct.std::_Base_bitset" = type { i64 }
%"class.std::unique_ptr" = type { %"struct.std::__uniq_ptr_data" }
%"struct.std::__uniq_ptr_data" = type { %"class.std::__uniq_ptr_impl" }
%"class.std::__uniq_ptr_impl" = type { %"class.std::tuple" }
%"class.std::tuple" = type { %"struct.std::_Tuple_impl" }
%"struct.std::_Tuple_impl" = type { %"struct.std::_Head_base.54" }
%"struct.std::_Head_base.54" = type { ptr }
%"class.std::vector.55" = type { %"struct.std::_Vector_base.56" }
%"struct.std::_Vector_base.56" = type { %"struct.std::_Vector_base<llvm::MCCFIInstruction, std::allocator<llvm::MCCFIInstruction>>::_Vector_impl" }
%"struct.std::_Vector_base<llvm::MCCFIInstruction, std::allocator<llvm::MCCFIInstruction>>::_Vector_impl" = type { %"struct.std::_Vector_base<llvm::MCCFIInstruction, std::allocator<llvm::MCCFIInstruction>>::_Vector_impl_data" }
%"struct.std::_Vector_base<llvm::MCCFIInstruction, std::allocator<llvm::MCCFIInstruction>>::_Vector_impl_data" = type { ptr, ptr, ptr }
%"class.std::vector.60" = type { %"struct.std::_Vector_base.61" }
%"struct.std::_Vector_base.61" = type { %"struct.std::_Vector_base<llvm::MCSymbol *, std::allocator<llvm::MCSymbol *>>::_Vector_impl" }
%"struct.std::_Vector_base<llvm::MCSymbol *, std::allocator<llvm::MCSymbol *>>::_Vector_impl" = type { %"struct.std::_Vector_base<llvm::MCSymbol *, std::allocator<llvm::MCSymbol *>>::_Vector_impl_data" }
%"struct.std::_Vector_base<llvm::MCSymbol *, std::allocator<llvm::MCSymbol *>>::_Vector_impl_data" = type { ptr, ptr, ptr }
%"class.std::vector.65" = type { %"struct.std::_Vector_base.66" }
%"struct.std::_Vector_base.66" = type { %"struct.std::_Vector_base<llvm::LandingPadInfo, std::allocator<llvm::LandingPadInfo>>::_Vector_impl" }
%"struct.std::_Vector_base<llvm::LandingPadInfo, std::allocator<llvm::LandingPadInfo>>::_Vector_impl" = type { %"struct.std::_Vector_base<llvm::LandingPadInfo, std::allocator<llvm::LandingPadInfo>>::_Vector_impl_data" }
%"struct.std::_Vector_base<llvm::LandingPadInfo, std::allocator<llvm::LandingPadInfo>>::_Vector_impl_data" = type { ptr, ptr, ptr }
%"class.llvm::DenseMap" = type <{ ptr, i32, i32, i32, [4 x i8] }>
%"class.llvm::DenseMap.70" = type <{ ptr, i32, i32, i32, [4 x i8] }>
%"class.llvm::DenseMap.73" = type <{ ptr, i32, i32, i32, [4 x i8] }>
%"class.std::vector.76" = type { %"struct.std::_Vector_base.77" }
%"struct.std::_Vector_base.77" = type { %"struct.std::_Vector_base<std::pair<llvm::MCSymbol *, llvm::MDNode *>, std::allocator<std::pair<llvm::MCSymbol *, llvm::MDNode *>>>::_Vector_impl" }
%"struct.std::_Vector_base<std::pair<llvm::MCSymbol *, llvm::MDNode *>, std::allocator<std::pair<llvm::MCSymbol *, llvm::MDNode *>>>::_Vector_impl" = type { %"struct.std::_Vector_base<std::pair<llvm::MCSymbol *, llvm::MDNode *>, std::allocator<std::pair<llvm::MCSymbol *, llvm::MDNode *>>>::_Vector_impl_data" }
%"struct.std::_Vector_base<std::pair<llvm::MCSymbol *, llvm::MDNode *>, std::allocator<std::pair<llvm::MCSymbol *, llvm::MDNode *>>>::_Vector_impl_data" = type { ptr, ptr, ptr }
%"class.std::vector.81" = type { %"struct.std::_Vector_base.82" }
%"struct.std::_Vector_base.82" = type { %"struct.std::_Vector_base<const llvm::GlobalValue *, std::allocator<const llvm::GlobalValue *>>::_Vector_impl" }
%"struct.std::_Vector_base<const llvm::GlobalValue *, std::allocator<const llvm::GlobalValue *>>::_Vector_impl" = type { %"struct.std::_Vector_base<const llvm::GlobalValue *, std::allocator<const llvm::GlobalValue *>>::_Vector_impl_data" }
%"struct.std::_Vector_base<const llvm::GlobalValue *, std::allocator<const llvm::GlobalValue *>>::_Vector_impl_data" = type { ptr, ptr, ptr }
%"class.std::vector.86" = type { %"struct.std::_Vector_base.87" }
%"struct.std::_Vector_base.87" = type { %"struct.std::_Vector_base<unsigned int, std::allocator<unsigned int>>::_Vector_impl" }
%"struct.std::_Vector_base<unsigned int, std::allocator<unsigned int>>::_Vector_impl" = type { %"struct.std::_Vector_base<unsigned int, std::allocator<unsigned int>>::_Vector_impl_data" }
%"struct.std::_Vector_base<unsigned int, std::allocator<unsigned int>>::_Vector_impl_data" = type { ptr, ptr, ptr }
%"class.llvm::DenseMap.91" = type <{ ptr, i32, i32, i32, [4 x i8] }>
%"class.llvm::SmallVector.94" = type { %"class.llvm::SmallVectorImpl.95", %"struct.llvm::SmallVectorStorage.98" }
%"class.llvm::SmallVectorImpl.95" = type { %"class.llvm::SmallVectorTemplateBase.96" }
%"class.llvm::SmallVectorTemplateBase.96" = type { %"class.llvm::SmallVectorTemplateCommon.97" }
%"class.llvm::SmallVectorTemplateCommon.97" = type { %"class.llvm::SmallVectorBase" }
%"struct.llvm::SmallVectorStorage.98" = type { [128 x i8] }
%"class.llvm::SmallVector.99" = type { %"class.llvm::SmallVectorImpl.100", %"struct.llvm::SmallVectorStorage.103" }
%"class.llvm::SmallVectorImpl.100" = type { %"class.llvm::SmallVectorTemplateBase.101" }
%"class.llvm::SmallVectorTemplateBase.101" = type { %"class.llvm::SmallVectorTemplateCommon.102" }
%"class.llvm::SmallVectorTemplateCommon.102" = type { %"class.llvm::SmallVectorBase" }
%"struct.llvm::SmallVectorStorage.103" = type { [160 x i8] }
%"class.llvm::DenseMap.104" = type <{ ptr, i32, i32, i32, [4 x i8] }>

; Function Attrs: mustprogress nounwind uwtable
define linkonce_odr hidden noundef nonnull align 8 dereferenceable(8) ptr @_ZNSt6vectorIPN4llvm17MachineBasicBlockESaIS2_EEixEm(ptr noundef nonnull align 8 dereferenceable(24) %0, i64 noundef %1) #1 comdat align 2 {
  %3 = alloca ptr, align 8
  %4 = alloca i64, align 8
  store ptr %0, ptr %3, align 8
  store i64 %1, ptr %4, align 8
  %5 = load ptr, ptr %3, align 8
  %6 = getelementptr inbounds nuw %"struct.std::_Vector_base.25", ptr %5, i32 0, i32 0
  %7 = getelementptr inbounds nuw %"struct.std::_Vector_base<llvm::MachineBasicBlock *, std::allocator<llvm::MachineBasicBlock *>>::_Vector_impl_data", ptr %6, i32 0, i32 0
  %8 = load ptr, ptr %7, align 8
  %9 = load i64, ptr %4, align 8
  %10 = getelementptr inbounds ptr, ptr %8, i64 %9
  ret ptr %10
}

; Function Attrs: mustprogress nounwind uwtable
define linkonce_odr hidden void @_ZN4llvm15MachineFunction22removeFromMBBNumberingEj(ptr noundef nonnull align 8 dereferenceable(1041) %0, i32 noundef %1) #1 comdat align 2 {
  %3 = alloca ptr, align 8
  %4 = alloca i32, align 4
  store ptr %0, ptr %3, align 8
  store i32 %1, ptr %4, align 4
  %5 = load ptr, ptr %3, align 8
  %6 = getelementptr inbounds nuw %"class.llvm::MachineFunction", ptr %5, i32 0, i32 12
  %7 = load i32, ptr %4, align 4
  %8 = zext i32 %7 to i64
  %9 = call noundef nonnull align 8 dereferenceable(8) ptr @_ZNSt6vectorIPN4llvm17MachineBasicBlockESaIS2_EEixEm(ptr noundef nonnull align 8 dereferenceable(24) %6, i64 noundef %8) #2
  store ptr null, ptr %9, align 8
  ret void
}

; Function Attrs: mustprogress nounwind uwtable
define linkonce_odr hidden noundef ptr @_ZN4llvm17MachineBasicBlock9getParentEv(ptr noundef nonnull align 8 dereferenceable(288) %0) #1 comdat align 2 {
  %2 = alloca ptr, align 8
  store ptr %0, ptr %2, align 8
  %3 = load ptr, ptr %2, align 8
  %4 = getelementptr inbounds nuw %"class.llvm::MachineBasicBlock", ptr %3, i32 0, i32 4
  %5 = load ptr, ptr %4, align 8
  ret ptr %5
}

; Function Attrs: mustprogress nounwind uwtable
define dso_local void @_ZN4llvm21ilist_callback_traitsINS_17MachineBasicBlockEE18removeNodeFromListEPS1_(ptr noundef nonnull align 1 dereferenceable(1) %0, ptr noundef %1) #1 align 2 {
  %3 = alloca ptr, align 8
  %4 = alloca ptr, align 8
  store ptr %0, ptr %3, align 8
  store ptr %1, ptr %4, align 8
  %5 = load ptr, ptr %4, align 8
  %6 = call noundef ptr @_ZN4llvm17MachineBasicBlock9getParentEv(ptr noundef nonnull align 8 dereferenceable(288) %5)
  %7 = load ptr, ptr %4, align 8
  %8 = getelementptr inbounds nuw %"class.llvm::MachineBasicBlock", ptr %7, i32 0, i32 2
  %9 = load i32, ptr %8, align 8
  call void @_ZN4llvm15MachineFunction22removeFromMBBNumberingEj(ptr noundef nonnull align 8 dereferenceable(1041) %6, i32 noundef %9)
  %10 = load ptr, ptr %4, align 8
  %11 = getelementptr inbounds nuw %"class.llvm::MachineBasicBlock", ptr %10, i32 0, i32 2
  store i32 -1, ptr %11, align 8
  ret void
}