; Function Attrs: mustprogress nofree norecurse nosync nounwind willreturn memory(readwrite, inaccessiblemem: none) uwtable
define dso_local void @_ZN4llvm21ilist_callback_traitsINS_17MachineBasicBlockEE18removeNodeFromListEPS1_(ptr noundef nonnull readnone align 1 captures(none) dereferenceable(1) %0, ptr noundef captures(none) %1) local_unnamed_addr #6 align 2 {
  %3 = getelementptr inbounds nuw i8, ptr %1, i64 32
  %4 = load ptr, ptr %3, align 8
  %5 = getelementptr inbounds nuw i8, ptr %1, i64 24
  %6 = load i32, ptr %5, align 8
  %7 = getelementptr inbounds nuw i8, ptr %4, i64 96
  %8 = zext i32 %6 to i64
  %9 = load ptr, ptr %7, align 8
  %10 = getelementptr inbounds nuw ptr, ptr %9, i64 %8
  store ptr null, ptr %10, align 8
  store i32 -1, ptr %5, align 8
  ret void
}